#include <math.h>
#include <stdio.h>
#include <stdlib.h>
#include <string.h>

void main()
{
	int a[305],b[305],i,k,n,c;
    scanf("%d",&n);
	for(i=0;i<n;i++)
	{scanf("%d",&a[i]);
	b[i]=a[i];}
    printf("%d",a[0]);
    for(i=1;i<n;i++)
	{for(k=0;k<=i-1;k++)
	{if(a[i]!=b[k])
	{c=1;}
	else if(a[i]==b[k])
	{c=0;break;}
	}
	if(c==1)
	{printf(",%d",a[i]);}
	}
	}