; ModuleID = 'source-C-CXX/52/442.c'
source_filename = "source-C-CXX/52/442.c"
target datalayout = "e-m:e-p270:32:32-p271:32:32-p272:64:64-i64:64-f80:128-n8:16:32:64-S128"
target triple = "x86_64-pc-linux-gnu"

@.str = private unnamed_addr constant [3 x i8] c"%d\00", align 1
@.str.1 = private unnamed_addr constant [4 x i8] c",%d\00", align 1

; Function Attrs: nofree nounwind sspstrong uwtable
define dso_local void @main() local_unnamed_addr #0 {
  %1 = alloca [305 x i32], align 16
  %2 = alloca [305 x i32], align 16
  %3 = alloca i32, align 4
  %4 = bitcast [305 x i32]* %1 to i8*
  call void @llvm.lifetime.start.p0i8(i64 1220, i8* nonnull %4) #3
  %5 = bitcast [305 x i32]* %2 to i8*
  call void @llvm.lifetime.start.p0i8(i64 1220, i8* nonnull %5) #3
  %6 = bitcast i32* %3 to i8*
  call void @llvm.lifetime.start.p0i8(i64 4, i8* nonnull %6) #3
  %7 = call i32 (i8*, ...) @__isoc99_scanf(i8* getelementptr inbounds ([3 x i8], [3 x i8]* @.str, i64 0, i64 0), i32* nonnull %3)
  %8 = load i32, i32* %3, align 4, !tbaa !5
  %9 = icmp sgt i32 %8, 0
  br i1 %9, label %10, label %23

10:                                               ; preds = %0, %10
  %11 = phi i64 [ %16, %10 ], [ 0, %0 ]
  %12 = getelementptr inbounds [305 x i32], [305 x i32]* %1, i64 0, i64 %11
  %13 = call i32 (i8*, ...) @__isoc99_scanf(i8* getelementptr inbounds ([3 x i8], [3 x i8]* @.str, i64 0, i64 0), i32* nonnull %12)
  %14 = load i32, i32* %12, align 4, !tbaa !5
  %15 = getelementptr inbounds [305 x i32], [305 x i32]* %2, i64 0, i64 %11
  store i32 %14, i32* %15, align 4, !tbaa !5
  %16 = add nuw nsw i64 %11, 1
  %17 = load i32, i32* %3, align 4, !tbaa !5
  %18 = sext i32 %17 to i64
  %19 = icmp slt i64 %16, %18
  br i1 %19, label %10, label %20, !llvm.loop !9

20:                                               ; preds = %10
  %21 = getelementptr inbounds [305 x i32], [305 x i32]* %1, i64 0, i64 0
  %22 = load i32, i32* %21, align 16, !tbaa !5
  br label %23

23:                                               ; preds = %20, %0
  %24 = phi i32 [ %22, %20 ], [ undef, %0 ]
  %25 = call i32 (i8*, ...) @printf(i8* nonnull dereferenceable(1) getelementptr inbounds ([3 x i8], [3 x i8]* @.str, i64 0, i64 0), i32 %24)
  %26 = load i32, i32* %3, align 4, !tbaa !5
  %27 = icmp sgt i32 %26, 1
  br i1 %27, label %28, label %49

28:                                               ; preds = %23, %44
  %29 = phi i32 [ %45, %44 ], [ %26, %23 ]
  %30 = phi i64 [ %46, %44 ], [ 1, %23 ]
  %31 = getelementptr inbounds [305 x i32], [305 x i32]* %1, i64 0, i64 %30
  %32 = load i32, i32* %31, align 4, !tbaa !5
  br label %35

33:                                               ; preds = %35
  %34 = icmp eq i64 %40, %30
  br i1 %34, label %41, label %35, !llvm.loop !11

35:                                               ; preds = %28, %33
  %36 = phi i64 [ 0, %28 ], [ %40, %33 ]
  %37 = getelementptr inbounds [305 x i32], [305 x i32]* %2, i64 0, i64 %36
  %38 = load i32, i32* %37, align 4, !tbaa !5
  %39 = icmp eq i32 %32, %38
  %40 = add nuw nsw i64 %36, 1
  br i1 %39, label %44, label %33

41:                                               ; preds = %33
  %42 = call i32 (i8*, ...) @printf(i8* nonnull dereferenceable(1) getelementptr inbounds ([4 x i8], [4 x i8]* @.str.1, i64 0, i64 0), i32 %32)
  %43 = load i32, i32* %3, align 4, !tbaa !5
  br label %44

44:                                               ; preds = %35, %41
  %45 = phi i32 [ %43, %41 ], [ %29, %35 ]
  %46 = add nuw nsw i64 %30, 1
  %47 = sext i32 %45 to i64
  %48 = icmp slt i64 %46, %47
  br i1 %48, label %28, label %49, !llvm.loop !12

49:                                               ; preds = %44, %23
  call void @llvm.lifetime.end.p0i8(i64 4, i8* nonnull %6) #3
  call void @llvm.lifetime.end.p0i8(i64 1220, i8* nonnull %5) #3
  call void @llvm.lifetime.end.p0i8(i64 1220, i8* nonnull %4) #3
  ret void
}

; Function Attrs: argmemonly mustprogress nofree nosync nounwind willreturn
declare void @llvm.lifetime.start.p0i8(i64 immarg, i8* nocapture) #1

; Function Attrs: nofree nounwind
declare noundef i32 @__isoc99_scanf(i8* nocapture noundef readonly, ...) local_unnamed_addr #2

; Function Attrs: nofree nounwind
declare noundef i32 @printf(i8* nocapture noundef readonly, ...) local_unnamed_addr #2

; Function Attrs: argmemonly mustprogress nofree nosync nounwind willreturn
declare void @llvm.lifetime.end.p0i8(i64 immarg, i8* nocapture) #1


!llvm.module.flags = !{!0, !1, !2, !3}
!llvm.ident = !{!4}

!0 = !{i32 1, !"wchar_size", i32 4}
!1 = !{i32 7, !"PIC Level", i32 2}
!2 = !{i32 7, !"PIE Level", i32 2}
!3 = !{i32 7, !"uwtable", i32 1}
!4 = !{!"clang version 13.0.0"}
!5 = !{!6, !6, i64 0}
!6 = !{!"int", !7, i64 0}
!7 = !{!"omnipotent char", !8, i64 0}
!8 = !{!"Simple C/C++ TBAA"}
!9 = distinct !{!9, !10}
!10 = !{!"llvm.loop.mustprogress"}
!11 = distinct !{!11, !10}
!12 = distinct !{!12, !10}
